target datalayout = "e-m:e-p270:32:32-p271:32:32-p272:64:64-i64:64-i128:128-f80:128-n8:16:32:64-S128"
target triple = "x86_64-pc-linux-gnu"

%struct.AC3DSPContext = type { ptr, ptr, ptr, ptr, ptr, ptr, ptr, ptr, i32, i32, ptr, ptr }

; Function Attrs: cold nounwind optsize uwtable
define void @ff_ac3dsp_init(ptr noundef %0) #2 {
  %2 = alloca ptr, align 8
  store ptr %0, ptr %2, align 8, !tbaa !4
  %3 = load ptr, ptr %2, align 8, !tbaa !4
  %4 = getelementptr inbounds nuw %struct.AC3DSPContext, ptr %3, i32 0, i32 0
  store ptr @ac3_exponent_min_c, ptr %4, align 8, !tbaa !48
  %5 = load ptr, ptr %2, align 8, !tbaa !4
  %6 = getelementptr inbounds nuw %struct.AC3DSPContext, ptr %5, i32 0, i32 1
  store ptr @float_to_fixed24_c, ptr %6, align 8, !tbaa !49
  %7 = load ptr, ptr %2, align 8, !tbaa !4
  %8 = getelementptr inbounds nuw %struct.AC3DSPContext, ptr %7, i32 0, i32 2
  store ptr @ac3_bit_alloc_calc_bap_c, ptr %8, align 8, !tbaa !50
  %9 = load ptr, ptr %2, align 8, !tbaa !4
  %10 = getelementptr inbounds nuw %struct.AC3DSPContext, ptr %9, i32 0, i32 3
  store ptr @ac3_update_bap_counts_c, ptr %10, align 8, !tbaa !51
  %11 = load ptr, ptr %2, align 8, !tbaa !4
  %12 = getelementptr inbounds nuw %struct.AC3DSPContext, ptr %11, i32 0, i32 4
  store ptr @ac3_compute_mantissa_size_c, ptr %12, align 8, !tbaa !52
  %13 = load ptr, ptr %2, align 8, !tbaa !4
  %14 = getelementptr inbounds nuw %struct.AC3DSPContext, ptr %13, i32 0, i32 5
  store ptr @ac3_extract_exponents_c, ptr %14, align 8, !tbaa !53
  %15 = load ptr, ptr %2, align 8, !tbaa !4
  %16 = getelementptr inbounds nuw %struct.AC3DSPContext, ptr %15, i32 0, i32 6
  store ptr @ac3_sum_square_butterfly_int32_c, ptr %16, align 8, !tbaa !54
  %17 = load ptr, ptr %2, align 8, !tbaa !4
  %18 = getelementptr inbounds nuw %struct.AC3DSPContext, ptr %17, i32 0, i32 7
  store ptr @ac3_sum_square_butterfly_float_c, ptr %18, align 8, !tbaa !55
  %19 = load ptr, ptr %2, align 8, !tbaa !4
  %20 = getelementptr inbounds nuw %struct.AC3DSPContext, ptr %19, i32 0, i32 9
  store i32 0, ptr %20, align 4, !tbaa !16
  %21 = load ptr, ptr %2, align 8, !tbaa !4
  %22 = getelementptr inbounds nuw %struct.AC3DSPContext, ptr %21, i32 0, i32 8
  store i32 0, ptr %22, align 8, !tbaa !18
  %23 = load ptr, ptr %2, align 8, !tbaa !4
  %24 = getelementptr inbounds nuw %struct.AC3DSPContext, ptr %23, i32 0, i32 10
  store ptr null, ptr %24, align 8, !tbaa !37
  %25 = load ptr, ptr %2, align 8, !tbaa !4
  %26 = getelementptr inbounds nuw %struct.AC3DSPContext, ptr %25, i32 0, i32 11
  store ptr null, ptr %26, align 8, !tbaa !19
  ret void
}