; Function Attrs: cold mustprogress nofree norecurse nosync nounwind optsize willreturn memory(argmem: write) uwtable
define void @ff_ac3dsp_init(ptr noundef writeonly captures(none) initializes((0, 88)) %0) local_unnamed_addr #2 {
  store ptr @ac3_exponent_min_c, ptr %0, align 8, !tbaa !37
  %2 = getelementptr inbounds nuw i8, ptr %0, i64 8
  store ptr @float_to_fixed24_c, ptr %2, align 8, !tbaa !38
  %3 = getelementptr inbounds nuw i8, ptr %0, i64 16
  store ptr @ac3_bit_alloc_calc_bap_c, ptr %3, align 8, !tbaa !39
  %4 = getelementptr inbounds nuw i8, ptr %0, i64 24
  store ptr @ac3_update_bap_counts_c, ptr %4, align 8, !tbaa !40
  %5 = getelementptr inbounds nuw i8, ptr %0, i64 32
  store ptr @ac3_compute_mantissa_size_c, ptr %5, align 8, !tbaa !41
  %6 = getelementptr inbounds nuw i8, ptr %0, i64 40
  store ptr @ac3_extract_exponents_c, ptr %6, align 8, !tbaa !42
  %7 = getelementptr inbounds nuw i8, ptr %0, i64 48
  store ptr @ac3_sum_square_butterfly_int32_c, ptr %7, align 8, !tbaa !43
  %8 = getelementptr inbounds nuw i8, ptr %0, i64 56
  store ptr @ac3_sum_square_butterfly_float_c, ptr %8, align 8, !tbaa !44
  %9 = getelementptr inbounds nuw i8, ptr %0, i64 64
  tail call void @llvm.memset.p0.i64(ptr noundef nonnull align 8 dereferenceable(24) %9, i8 0, i64 24, i1 false)
  ret void
}